target datalayout = "e-m:e-p270:32:32-p271:32:32-p272:64:64-i64:64-i128:128-f80:128-n8:16:32:64-S128"
target triple = "x86_64-pc-linux-gnu"

%class.G1CollectionSet = type { ptr, ptr, %class.G1CollectionSetCandidates, ptr, i32, i32, i32, i32, i32, %class.G1CollectionCandidateRegionList, i32, i64 }
%class.G1CollectionSetCandidates = type { [8 x i8], %class.G1CollectionCandidateList, %class.G1CollectionCandidateList, ptr, i32, i32 }
%class.G1CollectionCandidateList = type { %class.GrowableArray }
%class.GrowableArray = type { %class.GrowableArrayWithAllocator, %class.GrowableArrayMetadata }
%class.GrowableArrayWithAllocator = type { %class.GrowableArrayView }
%class.GrowableArrayView = type { %class.GrowableArrayBase, ptr }
%class.GrowableArrayBase = type { i32, i32 }
%class.GrowableArrayMetadata = type { i64 }
%class.G1CollectionCandidateRegionList = type { %class.GrowableArray.2 }
%class.GrowableArray.2 = type { %class.GrowableArrayWithAllocator.3, %class.GrowableArrayMetadata }
%class.GrowableArrayWithAllocator.3 = type { %class.GrowableArrayView.4 }
%class.GrowableArrayView.4 = type { %class.GrowableArrayBase, ptr }

; Function Attrs: mustprogress nounwind uwtable
define hidden void @_ZN15G1CollectionSet19init_region_lengthsEjj(ptr noundef nonnull align 8 dereferenceable(160) %0, i32 noundef %1, i32 noundef %2) #1 align 2 {
  %4 = alloca ptr, align 8
  %5 = alloca i32, align 4
  %6 = alloca i32, align 4
  store ptr %0, ptr %4, align 8
  store i32 %1, ptr %5, align 4
  store i32 %2, ptr %6, align 4
  %7 = load ptr, ptr %4, align 8
  br label %8

8:                                                ; preds = %3
  br label %9

9:                                                ; preds = %8
  %10 = load i32, ptr %5, align 4
  %11 = getelementptr inbounds %class.G1CollectionSet, ptr %7, i32 0, i32 6
  store i32 %10, ptr %11, align 8
  %12 = load i32, ptr %6, align 4
  %13 = getelementptr inbounds %class.G1CollectionSet, ptr %7, i32 0, i32 7
  store i32 %12, ptr %13, align 4
  %14 = getelementptr inbounds %class.G1CollectionSet, ptr %7, i32 0, i32 8
  store i32 0, ptr %14, align 8
  %15 = getelementptr inbounds %class.G1CollectionSet, ptr %7, i32 0, i32 9
  call void @_ZN31G1CollectionCandidateRegionList5clearEv(ptr noundef nonnull align 8 dereferenceable(24) %15)
  ret void
}