; Function Attrs: mustprogress nounwind uwtable
define hidden void @_ZN15G1CollectionSet19init_region_lengthsEjj(ptr noundef nonnull align 8 dereferenceable(160) %0, i32 noundef %1, i32 noundef %2) local_unnamed_addr #1 align 2 {
  %4 = getelementptr inbounds i8, ptr %0, i64 104
  store i32 %1, ptr %4, align 8
  %5 = getelementptr inbounds i8, ptr %0, i64 108
  store i32 %2, ptr %5, align 4
  %6 = getelementptr inbounds i8, ptr %0, i64 112
  store i32 0, ptr %6, align 8
  %7 = getelementptr inbounds i8, ptr %0, i64 120
  tail call void @_ZN31G1CollectionCandidateRegionList5clearEv(ptr noundef nonnull align 8 dereferenceable(24) %7) #15
  ret void
}